(lp0
(lp1
S'names'
p2
a(lp3
(lp4
S'name1?'
p5
aS'sam'
p6
a(lp7
aa(lp8
S'name2?'
p9
aS'tim'
p10
a(lp11
aa(lp12
S'name3?'
p13
aS'george'
p14
a(lp15
aaaa(lp16
S'math3'
p17
a(lp18
(lp19
S'2*2?'
p20
aS'4'
p21
a(lp22
aa(lp23
S'2*3?'
p24
aS'6'
p25
a(lp26
aa(lp27
S'2*4?'
p28
aS'8'
p29
a(lp30
aaaa.