(lp0
(lp1
(lp2
S'asdf'
p3
aa(lp4
S'asdf'
p5
aa(lp6
aa(lp7
(lp8
S'sadf'
p9
aa(lp10
S'asdf'
p11
aa(lp12
aa(lp13
(lp14
S'asdf'
p15
aa(lp16
S'asdf'
p17
aa(lp18
aa(lp19
(lp20
S'asf'
p21
aa(lp22
S'asd'
p23
aa(lp24
aa.